(lp0
S'poi'
p1
aS'salary'
p2
aS'ratio_from_poi'
p3
aS'total_payments'
p4
aS'loan_advances'
p5
aS'bonus'
p6
aS'total_stock_value'
p7
aS'shared_receipt_with_poi'
p8
aS'from_poi_to_this_person'
p9
aS'exercised_stock_options'
p10
aS'ratio_to_poi'
p11
aS'other'
p12
aS'deferred_income'
p13
aS'expenses'
p14
aS'restricted_stock'
p15
aS'long_term_incentive'
p16
a.